target datalayout = "e-m:e-p270:32:32-p271:32:32-p272:64:64-i64:64-i128:128-f80:128-n8:16:32:64-S128"
target triple = "x86_64-unknown-linux-gnu"

%"class.v8::IndirectHandleBase" = type { ptr }
%"class.node::BaseObject" = type { %"class.node::MemoryRetainer", %"class.v8::Global", ptr, ptr }
%"class.node::MemoryRetainer" = type { ptr }
%"class.v8::Global" = type { %"class.v8::PersistentBase" }
%"class.v8::PersistentBase" = type { %"class.v8::IndirectHandleBase" }
%"struct.node::InternalFieldInfoBase" = type { i8, i64 }
%"class.node::SnapshotableObject" = type <{ %"class.node::BaseObject", i8, [7 x i8] }>

; Function Attrs: mustprogress nounwind uwtable
define linkonce_odr dso_local noundef ptr @_ZN4node21InternalFieldInfoBase3NewIS0_EEPT_NS_18EmbedderObjectTypeE(i8 noundef zeroext %type) #4 comdat align 2 {
entry:
  %type.addr = alloca i8, align 1
  %buf = alloca ptr, align 8
  %result = alloca ptr, align 8
  store i8 %type, ptr %type.addr, align 1
  %call = call noalias noundef nonnull ptr @_Znam(i64 noundef 16) #18
  store ptr %call, ptr %buf, align 8
  %0 = load ptr, ptr %buf, align 8
  store ptr %0, ptr %result, align 8
  %1 = load i8, ptr %type.addr, align 1
  %2 = load ptr, ptr %result, align 8
  %type1 = getelementptr inbounds %"struct.node::InternalFieldInfoBase", ptr %2, i32 0, i32 0
  store i8 %1, ptr %type1, align 8
  %3 = load ptr, ptr %result, align 8
  %length = getelementptr inbounds %"struct.node::InternalFieldInfoBase", ptr %3, i32 0, i32 1
  store i64 16, ptr %length, align 8
  %4 = load ptr, ptr %result, align 8
  ret ptr %4
}

; Function Attrs: mustprogress nounwind uwtable
define linkonce_odr dso_local noundef zeroext i8 @_ZN4node18SnapshotableObject4typeEv(ptr noundef nonnull align 8 dereferenceable(33) %this) #4 comdat align 2 {
entry:
  %this.addr = alloca ptr, align 8
  store ptr %this, ptr %this.addr, align 8
  %this1 = load ptr, ptr %this.addr, align 8
  %type_ = getelementptr inbounds %"class.node::SnapshotableObject", ptr %this1, i32 0, i32 1
  %0 = load i8, ptr %type_, align 8
  ret i8 %0
}

; Function Attrs: mustprogress nounwind uwtable
define dso_local noundef ptr @_ZN4node7modules11BindingData9SerializeEi(ptr noundef nonnull align 8 dereferenceable(152) %this, i32 noundef %index) unnamed_addr #4 align 2 {
entry:
  %this.addr = alloca ptr, align 8
  %index.addr = alloca i32, align 4
  %info = alloca ptr, align 8
  store ptr %this, ptr %this.addr, align 8
  store i32 %index, ptr %index.addr, align 4
  %this1 = load ptr, ptr %this.addr, align 8
  %call = call noundef zeroext i8 @_ZN4node18SnapshotableObject4typeEv(ptr noundef nonnull align 8 dereferenceable(33) %this1)
  %call2 = call noundef ptr @_ZN4node21InternalFieldInfoBase3NewIS0_EEPT_NS_18EmbedderObjectTypeE(i8 noundef zeroext %call)
  store ptr %call2, ptr %info, align 8
  %0 = load ptr, ptr %info, align 8
  ret ptr %0
}