; Function Attrs: mustprogress nounwind uwtable
define dso_local noalias noundef nonnull ptr @_ZN4node7modules11BindingData9SerializeEi(ptr nocapture noundef nonnull readonly align 8 dereferenceable(152) %this, i32 %index) unnamed_addr #4 align 2 {
entry:
  %type_.i = getelementptr inbounds i8, ptr %this, i64 32
  %0 = load i8, ptr %type_.i, align 8
  %call.i = tail call noalias noundef nonnull dereferenceable(16) ptr @_Znam(i64 noundef 16) #23
  store i8 %0, ptr %call.i, align 8
  %length.i = getelementptr inbounds i8, ptr %call.i, i64 8
  store i64 16, ptr %length.i, align 8
  ret ptr %call.i
}